Certificate:
    Data:
        Version: 3 (0x2)
        Serial Number: 2 (0x2)
    Signature Algorithm: sha256WithRSAEncryption
        Issuer: C=US, ST=CA, L=SanFrancisco, O=Fort-Funston, OU=MyOrganizationalUnit, CN=Fort-Funston CA/name=EasyRSA/emailAddress=me@myhost.mydomain
        Validity
            Not Before: Sep 16 00:24:14 2017 GMT
            Not After : Sep 14 00:24:14 2027 GMT
        Subject: C=US, ST=CA, L=SanFrancisco, O=Fort-Funston, OU=MyOrganizationalUnit, CN=cli.key/name=EasyRSA/emailAddress=me@myhost.mydomain
        Subject Public Key Info:
            Public Key Algorithm: rsaEncryption
                Public-Key: (2048 bit)
                Modulus:
                    00:b8:de:44:33:19:05:73:8e:dd:e9:da:ec:8a:67:
                    73:0c:78:62:d9:c8:d0:e2:28:c7:70:46:27:24:68:
                    be:1f:5b:cd:48:4a:b6:7a:08:cc:19:4c:ac:ad:82:
                    3c:41:11:d9:d2:94:f2:e4:98:a6:7f:1e:74:0c:cb:
                    0b:94:85:d4:f3:88:d0:ed:71:f7:b8:2e:e9:36:76:
                    d5:a8:fa:e9:d6:db:1d:26:e2:fe:5d:63:e5:0b:3c:
                    f8:f8:23:d2:da:3e:d0:50:72:3a:b2:4b:53:fd:73:
                    56:1d:69:cc:be:de:7a:33:3f:72:6a:19:bb:65:20:
                    1d:12:1b:ba:55:62:3e:fe:3c:65:5b:18:aa:73:4b:
                    34:0a:3b:20:1f:05:d8:c0:86:cc:47:bf:ac:ed:b0:
                    05:f6:91:84:d2:e9:13:00:eb:75:97:11:f8:f1:9c:
                    b5:fc:81:d5:e0:64:fc:39:f2:5b:ba:87:39:51:ef:
                    a8:90:70:6f:97:5c:94:08:77:a6:ba:d2:be:ff:6b:
                    26:6e:e2:a0:e9:03:66:a4:ac:59:a8:d4:48:b3:cd:
                    af:f2:10:b0:52:54:fd:1a:2e:96:ae:a2:3d:3b:56:
                    c0:62:8d:78:3d:e4:ad:6e:d6:be:a8:4e:8e:c1:d4:
                    10:13:4b:be:6f:92:48:01:85:e3:4b:45:53:50:04:
                    c4:eb
                Exponent: 65537 (0x10001)
        X509v3 extensions:
            X509v3 Basic Constraints: 
                CA:FALSE
            Netscape Comment: 
                Easy-RSA Generated Certificate
            X509v3 Subject Key Identifier: 
                4F:91:08:06:EC:2D:AF:E5:28:05:F0:C6:9F:B7:54:29:A8:8F:C3:7C
            X509v3 Authority Key Identifier: 
                keyid:3C:36:E6:B9:8F:30:59:B6:CB:A6:56:5F:A6:61:F8:F2:BB:CA:3F:9D
                DirName:/C=US/ST=CA/L=SanFrancisco/O=Fort-Funston/OU=MyOrganizationalUnit/CN=Fort-Funston CA/name=EasyRSA/emailAddress=me@myhost.mydomain
                serial:CC:40:44:7D:4D:07:77:74

            X509v3 Extended Key Usage: 
                TLS Web Client Authentication
            X509v3 Key Usage: 
                Digital Signature
            X509v3 Subject Alternative Name: 
                DNS:cli.key
    Signature Algorithm: sha256WithRSAEncryption
         2c:1c:bf:3c:8b:2f:98:ed:1d:0a:a6:20:63:bf:d9:a8:75:7a:
         c7:26:74:d8:39:ff:61:62:79:fe:d9:32:0c:57:1f:10:98:b0:
         c2:a1:13:2b:22:f7:cb:1d:35:30:25:f6:fe:10:d1:c7:5d:b8:
         84:b5:29:fc:43:57:f9:9b:e0:f7:a5:8e:b0:c7:30:7b:85:a1:
         39:cf:11:a5:06:bb:5b:44:9e:94:25:3c:8b:c7:ff:29:ae:2b:
         19:98:dc:96:06:ca:dc:2c:d7:57:ed:73:8f:7f:15:0f:7a:83:
         2a:5a:58:2c:78:d1:2a:a8:87:ea:96:f6:77:ae:6c:1b:50:81:
         51:9d:e0:ed:8d:19:9a:bd:de:e6:b7:6f:5c:bc:1c:6e:a3:43:
         09:f3:4f:7d:a6:20:37:27:0c:bd:14:05:89:18:68:c7:6d:5e:
         2f:4d:60:ae:66:f2:af:02:9d:64:2b:bf:1d:a9:c5:54:45:af:
         07:56:1b:62:e6:c2:45:b9:06:4c:8f:db:21:be:eb:72:e2:71:
         7d:ba:61:b4:72:69:c1:e6:a6:19:31:a7:b1:f7:a4:af:99:1a:
         31:ea:4d:c2:5c:cd:57:ec:22:89:f1:1d:8d:82:04:69:5b:2f:
         1b:8e:f4:d7:fb:8d:81:91:21:63:8a:8a:37:85:03:d1:69:2e:
         0f:a6:86:86
-----BEGIN CERTIFICATE-----
MIIFZDCCBEygAwIBAgIBAjANBgkqhkiG9w0BAQsFADCBtjELMAkGA1UEBhMCVVMx
CzAJBgNVBAgTAkNBMRUwEwYDVQQHEwxTYW5GcmFuY2lzY28xFTATBgNVBAoTDEZv
cnQtRnVuc3RvbjEdMBsGA1UECxMUTXlPcmdhbml6YXRpb25hbFVuaXQxGDAWBgNV
BAMTD0ZvcnQtRnVuc3RvbiBDQTEQMA4GA1UEKRMHRWFzeVJTQTEhMB8GCSqGSIb3
DQEJARYSbWVAbXlob3N0Lm15ZG9tYWluMB4XDTE3MDkxNjAwMjQxNFoXDTI3MDkx
NDAwMjQxNFowga4xCzAJBgNVBAYTAlVTMQswCQYDVQQIEwJDQTEVMBMGA1UEBxMM
U2FuRnJhbmNpc2NvMRUwEwYDVQQKEwxGb3J0LUZ1bnN0b24xHTAbBgNVBAsTFE15
T3JnYW5pemF0aW9uYWxVbml0MRAwDgYDVQQDEwdjbGkua2V5MRAwDgYDVQQpEwdF
YXN5UlNBMSEwHwYJKoZIhvcNAQkBFhJtZUBteWhvc3QubXlkb21haW4wggEiMA0G
CSqGSIb3DQEBAQUAA4IBDwAwggEKAoIBAQC43kQzGQVzjt3p2uyKZ3MMeGLZyNDi
KMdwRickaL4fW81ISrZ6CMwZTKytgjxBEdnSlPLkmKZ/HnQMywuUhdTziNDtcfe4
Luk2dtWo+unW2x0m4v5dY+ULPPj4I9LaPtBQcjqyS1P9c1Ydacy+3nozP3JqGbtl
IB0SG7pVYj7+PGVbGKpzSzQKOyAfBdjAhsxHv6ztsAX2kYTS6RMA63WXEfjxnLX8
gdXgZPw58lu6hzlR76iQcG+XXJQId6a60r7/ayZu4qDpA2akrFmo1Eizza/yELBS
VP0aLpauoj07VsBijXg95K1u1r6oTo7B1BATS75vkkgBheNLRVNQBMTrAgMBAAGj
ggGBMIIBfTAJBgNVHRMEAjAAMC0GCWCGSAGG+EIBDQQgFh5FYXN5LVJTQSBHZW5l
cmF0ZWQgQ2VydGlmaWNhdGUwHQYDVR0OBBYEFE+RCAbsLa/lKAXwxp+3VCmoj8N8
MIHrBgNVHSMEgeMwgeCAFDw25rmPMFm2y6ZWX6Zh+PK7yj+doYG8pIG5MIG2MQsw
CQYDVQQGEwJVUzELMAkGA1UECBMCQ0ExFTATBgNVBAcTDFNhbkZyYW5jaXNjbzEV
MBMGA1UEChMMRm9ydC1GdW5zdG9uMR0wGwYDVQQLExRNeU9yZ2FuaXphdGlvbmFs
VW5pdDEYMBYGA1UEAxMPRm9ydC1GdW5zdG9uIENBMRAwDgYDVQQpEwdFYXN5UlNB
MSEwHwYJKoZIhvcNAQkBFhJtZUBteWhvc3QubXlkb21haW6CCQDMQER9TQd3dDAT
BgNVHSUEDDAKBggrBgEFBQcDAjALBgNVHQ8EBAMCB4AwEgYDVR0RBAswCYIHY2xp
LmtleTANBgkqhkiG9w0BAQsFAAOCAQEALBy/PIsvmO0dCqYgY7/ZqHV6xyZ02Dn/
YWJ5/tkyDFcfEJiwwqETKyL3yx01MCX2/hDRx124hLUp/ENX+Zvg96WOsMcwe4Wh
Oc8RpQa7W0SelCU8i8f/Ka4rGZjclgbK3CzXV+1zj38VD3qDKlpYLHjRKqiH6pb2
d65sG1CBUZ3g7Y0Zmr3e5rdvXLwcbqNDCfNPfaYgNycMvRQFiRhox21eL01grmby
rwKdZCu/HanFVEWvB1YbYubCRbkGTI/bIb7rcuJxfbphtHJpweamGTGnsfekr5ka
MepNwlzNV+wiifEdjYIEaVsvG4701/uNgZEhY4qKN4UD0WkuD6aGhg==
-----END CERTIFICATE-----
