Certificate:
    Data:
        Version: 3 (0x2)
        Serial Number: 1 (0x1)
    Signature Algorithm: sha256WithRSAEncryption
        Issuer: C=US, ST=CA, L=SanFrancisco, O=Fort-Funston, OU=MyOrganizationalUnit, CN=Fort-Funston CA/name=EasyRSA/emailAddress=me@myhost.mydomain
        Validity
            Not Before: Sep 16 00:23:36 2017 GMT
            Not After : Sep 14 00:23:36 2027 GMT
        Subject: C=US, ST=CA, L=SanFrancisco, O=Fort-Funston, OU=MyOrganizationalUnit, CN=server/name=EasyRSA/emailAddress=me@myhost.mydomain
        Subject Public Key Info:
            Public Key Algorithm: rsaEncryption
                Public-Key: (2048 bit)
                Modulus:
                    00:cc:ad:d9:46:5b:a1:06:c6:f9:55:d1:ab:0a:f6:
                    85:bd:67:dd:9b:98:eb:7a:4e:a6:6f:da:59:b0:fc:
                    57:88:9e:f7:6f:07:99:26:b8:9c:81:5e:22:dc:61:
                    9b:7a:26:6d:0b:17:8f:0e:b9:e5:5c:41:96:24:98:
                    68:4e:5c:21:fe:d9:0f:ce:fb:0f:25:ab:e4:6c:ef:
                    e5:04:18:34:de:f8:b5:74:c4:1d:21:89:c0:a0:04:
                    ad:67:af:20:66:40:79:85:32:b8:87:85:3f:2c:4f:
                    38:b1:48:4b:9d:00:be:e8:0a:f7:64:50:02:29:d4:
                    07:eb:eb:90:5b:90:f2:0b:ae:af:12:49:44:11:5e:
                    97:e9:e7:85:fa:6c:b3:47:6c:8e:1c:3d:c0:6e:50:
                    b1:86:7b:21:09:fe:ee:1c:13:d6:25:c5:58:6a:d9:
                    cd:18:33:f4:cc:1d:f9:42:c9:20:ce:1b:63:09:f2:
                    f4:b8:6d:91:8f:5e:b6:af:7e:a2:f7:58:df:d8:0e:
                    7c:61:95:e4:7a:9a:53:a6:3f:ec:aa:05:ba:06:76:
                    f4:c5:20:de:37:6c:7c:0c:b5:9b:26:c3:89:7b:3f:
                    f6:48:4f:08:47:6e:f0:0b:36:07:b4:92:52:67:34:
                    77:8b:2a:2a:80:27:df:c1:bf:6d:d4:83:66:f3:41:
                    71:8f
                Exponent: 65537 (0x10001)
        X509v3 extensions:
            X509v3 Basic Constraints: 
                CA:FALSE
            Netscape Cert Type: 
                SSL Server
            Netscape Comment: 
                Easy-RSA Generated Server Certificate
            X509v3 Subject Key Identifier: 
                7F:80:6C:63:07:53:89:39:29:A8:A5:A8:B9:B6:94:B2:60:A8:39:8C
            X509v3 Authority Key Identifier: 
                keyid:3C:36:E6:B9:8F:30:59:B6:CB:A6:56:5F:A6:61:F8:F2:BB:CA:3F:9D
                DirName:/C=US/ST=CA/L=SanFrancisco/O=Fort-Funston/OU=MyOrganizationalUnit/CN=Fort-Funston CA/name=EasyRSA/emailAddress=me@myhost.mydomain
                serial:CC:40:44:7D:4D:07:77:74

            X509v3 Extended Key Usage: 
                TLS Web Server Authentication
            X509v3 Key Usage: 
                Digital Signature, Key Encipherment
            X509v3 Subject Alternative Name: 
                DNS:server
    Signature Algorithm: sha256WithRSAEncryption
         37:65:b7:85:03:2f:df:b3:ca:6a:eb:46:5e:30:59:0f:71:ca:
         15:05:b5:91:fc:bb:f7:d5:a7:3a:68:29:e5:8a:f6:a3:9d:f5:
         02:dc:f2:6b:b7:27:8d:f4:54:9e:bd:b8:1a:67:57:59:74:9c:
         ae:6d:42:5a:fb:cf:74:a6:71:dd:29:82:7d:62:53:44:c2:4a:
         4b:3e:0a:a5:31:e5:51:bc:3f:eb:a8:43:12:b4:9d:5a:b4:b9:
         54:03:5a:e8:dd:d2:ad:f5:fc:ae:8e:e3:11:85:77:da:e1:42:
         32:66:57:9d:71:05:6d:bf:61:98:1d:8d:69:ed:af:f7:04:9b:
         9e:cd:a2:a8:5c:68:d7:87:fe:e8:79:bb:fa:fc:cb:27:d2:ef:
         30:ed:4a:58:98:82:e8:b1:df:b0:eb:a2:c6:f2:73:e5:0e:97:
         62:39:d8:7d:3c:ed:5f:e9:61:e5:5f:7a:cc:48:ae:90:9e:81:
         76:62:1d:47:87:a6:7c:98:3d:d8:0d:e4:97:27:13:08:e9:4f:
         75:10:a9:9f:59:2d:9d:f6:ae:56:92:ad:f0:0a:44:21:d2:3d:
         55:ad:8e:5b:75:25:b8:7f:fd:3e:c5:fa:8e:a8:ea:ed:53:82:
         a8:56:18:08:86:ee:fb:b0:22:99:e4:98:4d:4e:c7:8b:f6:da:
         86:ca:7c:43
-----BEGIN CERTIFICATE-----
MIIFfDCCBGSgAwIBAgIBATANBgkqhkiG9w0BAQsFADCBtjELMAkGA1UEBhMCVVMx
CzAJBgNVBAgTAkNBMRUwEwYDVQQHEwxTYW5GcmFuY2lzY28xFTATBgNVBAoTDEZv
cnQtRnVuc3RvbjEdMBsGA1UECxMUTXlPcmdhbml6YXRpb25hbFVuaXQxGDAWBgNV
BAMTD0ZvcnQtRnVuc3RvbiBDQTEQMA4GA1UEKRMHRWFzeVJTQTEhMB8GCSqGSIb3
DQEJARYSbWVAbXlob3N0Lm15ZG9tYWluMB4XDTE3MDkxNjAwMjMzNloXDTI3MDkx
NDAwMjMzNlowga0xCzAJBgNVBAYTAlVTMQswCQYDVQQIEwJDQTEVMBMGA1UEBxMM
U2FuRnJhbmNpc2NvMRUwEwYDVQQKEwxGb3J0LUZ1bnN0b24xHTAbBgNVBAsTFE15
T3JnYW5pemF0aW9uYWxVbml0MQ8wDQYDVQQDEwZzZXJ2ZXIxEDAOBgNVBCkTB0Vh
c3lSU0ExITAfBgkqhkiG9w0BCQEWEm1lQG15aG9zdC5teWRvbWFpbjCCASIwDQYJ
KoZIhvcNAQEBBQADggEPADCCAQoCggEBAMyt2UZboQbG+VXRqwr2hb1n3ZuY63pO
pm/aWbD8V4ie928HmSa4nIFeItxhm3ombQsXjw655VxBliSYaE5cIf7ZD877DyWr
5Gzv5QQYNN74tXTEHSGJwKAErWevIGZAeYUyuIeFPyxPOLFIS50AvugK92RQAinU
B+vrkFuQ8guurxJJRBFel+nnhfpss0dsjhw9wG5QsYZ7IQn+7hwT1iXFWGrZzRgz
9Mwd+ULJIM4bYwny9LhtkY9etq9+ovdY39gOfGGV5HqaU6Y/7KoFugZ29MUg3jds
fAy1mybDiXs/9khPCEdu8As2B7SSUmc0d4sqKoAn38G/bdSDZvNBcY8CAwEAAaOC
AZowggGWMAkGA1UdEwQCMAAwEQYJYIZIAYb4QgEBBAQDAgZAMDQGCWCGSAGG+EIB
DQQnFiVFYXN5LVJTQSBHZW5lcmF0ZWQgU2VydmVyIENlcnRpZmljYXRlMB0GA1Ud
DgQWBBR/gGxjB1OJOSmopai5tpSyYKg5jDCB6wYDVR0jBIHjMIHggBQ8Nua5jzBZ
tsumVl+mYfjyu8o/naGBvKSBuTCBtjELMAkGA1UEBhMCVVMxCzAJBgNVBAgTAkNB
MRUwEwYDVQQHEwxTYW5GcmFuY2lzY28xFTATBgNVBAoTDEZvcnQtRnVuc3RvbjEd
MBsGA1UECxMUTXlPcmdhbml6YXRpb25hbFVuaXQxGDAWBgNVBAMTD0ZvcnQtRnVu
c3RvbiBDQTEQMA4GA1UEKRMHRWFzeVJTQTEhMB8GCSqGSIb3DQEJARYSbWVAbXlo
b3N0Lm15ZG9tYWluggkAzEBEfU0Hd3QwEwYDVR0lBAwwCgYIKwYBBQUHAwEwCwYD
VR0PBAQDAgWgMBEGA1UdEQQKMAiCBnNlcnZlcjANBgkqhkiG9w0BAQsFAAOCAQEA
N2W3hQMv37PKautGXjBZD3HKFQW1kfy799WnOmgp5Yr2o531Atzya7cnjfRUnr24
GmdXWXScrm1CWvvPdKZx3SmCfWJTRMJKSz4KpTHlUbw/66hDErSdWrS5VANa6N3S
rfX8ro7jEYV32uFCMmZXnXEFbb9hmB2Nae2v9wSbns2iqFxo14f+6Hm7+vzLJ9Lv
MO1KWJiC6LHfsOuixvJz5Q6XYjnYfTztX+lh5V96zEiukJ6BdmIdR4emfJg92A3k
lycTCOlPdRCpn1ktnfauVpKt8ApEIdI9Va2OW3UluH/9PsX6jqjq7VOCqFYYCIbu
+7AimeSYTU7Hi/bahsp8Qw==
-----END CERTIFICATE-----
